target datalayout = "e-m:e-p270:32:32-p271:32:32-p272:64:64-i64:64-i128:128-f80:128-n8:16:32:64-S128"
target triple = "x86_64-pc-linux-gnu"

%struct.fstWriterContext = type { ptr, ptr, ptr, ptr, ptr, ptr, ptr, i64, ptr, ptr, ptr, i32, ptr, i32, i32, i32, i8, i64, i64, i32, i32, i64, i64, i32, i32, i32, i64, i32, double, ptr, ptr, i32, i64, i8, i8, i8, i8, i8, i64, i64, i64, i64, i64, i32, ptr, i32, i8, ptr, ptr, ptr, ptr, i32 }

; Function Attrs: mustprogress uwtable
define internal noundef i64 @_ZL9fstFwritePKvmmP8_IO_FILE(ptr noundef %0, i64 noundef %1, i64 noundef %2, ptr noundef %3) #0 {
  %5 = alloca ptr, align 8
  %6 = alloca i64, align 8
  %7 = alloca i64, align 8
  %8 = alloca ptr, align 8
  store ptr %0, ptr %5, align 8, !tbaa !50
  store i64 %1, ptr %6, align 8, !tbaa !35
  store i64 %2, ptr %7, align 8, !tbaa !35
  store ptr %3, ptr %8, align 8, !tbaa !33
  %9 = load ptr, ptr %5, align 8, !tbaa !50
  %10 = load i64, ptr %6, align 8, !tbaa !35
  %11 = load i64, ptr %7, align 8, !tbaa !35
  %12 = load ptr, ptr %8, align 8, !tbaa !33
  %13 = call i64 @fwrite(ptr noundef %9, i64 noundef %10, i64 noundef %11, ptr noundef %12)
  ret i64 %13
}

; Function Attrs: mustprogress uwtable
define internal noundef i32 @_ZL15fstWriterUint64P8_IO_FILEm(ptr noundef %0, i64 noundef %1) #0 {
  %3 = alloca ptr, align 8
  %4 = alloca i64, align 8
  %5 = alloca [8 x i8], align 1
  %6 = alloca i32, align 4
  store ptr %0, ptr %3, align 8, !tbaa !33
  store i64 %1, ptr %4, align 8, !tbaa !35
  call void @llvm.lifetime.start.p0(i64 8, ptr %5) #15
  call void @llvm.lifetime.start.p0(i64 4, ptr %6) #15
  store i32 7, ptr %6, align 4, !tbaa !11
  br label %7

7:                                                ; preds = %19, %2
  %8 = load i32, ptr %6, align 4, !tbaa !11
  %9 = icmp sge i32 %8, 0
  br i1 %9, label %10, label %22

10:                                               ; preds = %7
  %11 = load i64, ptr %4, align 8, !tbaa !35
  %12 = and i64 %11, 255
  %13 = trunc i64 %12 to i8
  %14 = load i32, ptr %6, align 4, !tbaa !11
  %15 = sext i32 %14 to i64
  %16 = getelementptr inbounds [8 x i8], ptr %5, i64 0, i64 %15
  store i8 %13, ptr %16, align 1, !tbaa !34
  %17 = load i64, ptr %4, align 8, !tbaa !35
  %18 = lshr i64 %17, 8
  store i64 %18, ptr %4, align 8, !tbaa !35
  br label %19

19:                                               ; preds = %10
  %20 = load i32, ptr %6, align 4, !tbaa !11
  %21 = add nsw i32 %20, -1
  store i32 %21, ptr %6, align 4, !tbaa !11
  br label %7, !llvm.loop !94

22:                                               ; preds = %7
  %23 = getelementptr inbounds [8 x i8], ptr %5, i64 0, i64 0
  %24 = load ptr, ptr %3, align 8, !tbaa !33
  %25 = call noundef i64 @_ZL9fstFwritePKvmmP8_IO_FILE(ptr noundef %23, i64 noundef 8, i64 noundef 1, ptr noundef %24)
  call void @llvm.lifetime.end.p0(i64 4, ptr %6) #15
  call void @llvm.lifetime.end.p0(i64 8, ptr %5) #15
  ret i32 8
}

; Function Attrs: mustprogress uwtable
define internal noundef i32 @_ZL15fstWriterFseekoP16fstWriterContextP8_IO_FILEli(ptr noundef %0, ptr noundef %1, i64 noundef %2, i32 noundef %3) #0 {
  %5 = alloca ptr, align 8
  %6 = alloca ptr, align 8
  %7 = alloca i64, align 8
  %8 = alloca i32, align 4
  %9 = alloca i32, align 4
  store ptr %0, ptr %5, align 8, !tbaa !13
  store ptr %1, ptr %6, align 8, !tbaa !33
  store i64 %2, ptr %7, align 8, !tbaa !35
  store i32 %3, ptr %8, align 4, !tbaa !11
  call void @llvm.lifetime.start.p0(i64 4, ptr %9) #15
  %10 = load ptr, ptr %6, align 8, !tbaa !33
  %11 = load i64, ptr %7, align 8, !tbaa !35
  %12 = load i32, ptr %8, align 4, !tbaa !11
  %13 = call i32 @fseeko(ptr noundef %10, i64 noundef %11, i32 noundef %12)
  store i32 %13, ptr %9, align 4, !tbaa !11
  %14 = load i32, ptr %9, align 4, !tbaa !11
  %15 = icmp slt i32 %14, 0
  br i1 %15, label %16, label %22

16:                                               ; preds = %4
  %17 = load ptr, ptr %5, align 8, !tbaa !13
  %18 = getelementptr inbounds nuw %struct.fstWriterContext, ptr %17, i32 0, i32 46
  %19 = load i8, ptr %18, align 4
  %20 = and i8 %19, -2
  %21 = or i8 %20, 1
  store i8 %21, ptr %18, align 4
  br label %22

22:                                               ; preds = %16, %4
  %23 = load i32, ptr %9, align 4, !tbaa !11
  call void @llvm.lifetime.end.p0(i64 4, ptr %9) #15
  ret i32 %23
}

; Function Attrs: mustprogress uwtable
define void @fstWriterSetTimezero(ptr noundef %0, i64 noundef %1) #0 {
  %3 = alloca ptr, align 8
  %4 = alloca i64, align 8
  %5 = alloca ptr, align 8
  %6 = alloca i64, align 8
  store ptr %0, ptr %3, align 8, !tbaa !50
  store i64 %1, ptr %4, align 8, !tbaa !35
  call void @llvm.lifetime.start.p0(i64 8, ptr %5) #15
  %7 = load ptr, ptr %3, align 8, !tbaa !50
  store ptr %7, ptr %5, align 8, !tbaa !13
  %8 = load ptr, ptr %5, align 8, !tbaa !13
  %9 = icmp ne ptr %8, null
  br i1 %9, label %10, label %37

10:                                               ; preds = %2
  call void @llvm.lifetime.start.p0(i64 8, ptr %6) #15
  %11 = load ptr, ptr %5, align 8, !tbaa !13
  %12 = getelementptr inbounds nuw %struct.fstWriterContext, ptr %11, i32 0, i32 0
  %13 = load ptr, ptr %12, align 8, !tbaa !15
  %14 = call i64 @ftello(ptr noundef %13)
  store i64 %14, ptr %6, align 8, !tbaa !35
  %15 = load ptr, ptr %5, align 8, !tbaa !13
  %16 = load ptr, ptr %5, align 8, !tbaa !13
  %17 = getelementptr inbounds nuw %struct.fstWriterContext, ptr %16, i32 0, i32 0
  %18 = load ptr, ptr %17, align 8, !tbaa !15
  %19 = call noundef i32 @_ZL15fstWriterFseekoP16fstWriterContextP8_IO_FILEli(ptr noundef %15, ptr noundef %18, i64 noundef 322, i32 noundef 0)
  %20 = load ptr, ptr %5, align 8, !tbaa !13
  %21 = getelementptr inbounds nuw %struct.fstWriterContext, ptr %20, i32 0, i32 0
  %22 = load ptr, ptr %21, align 8, !tbaa !15
  %23 = load i64, ptr %4, align 8, !tbaa !35
  %24 = load ptr, ptr %5, align 8, !tbaa !13
  %25 = getelementptr inbounds nuw %struct.fstWriterContext, ptr %24, i32 0, i32 17
  store i64 %23, ptr %25, align 8, !tbaa !47
  %26 = call noundef i32 @_ZL15fstWriterUint64P8_IO_FILEm(ptr noundef %22, i64 noundef %23)
  %27 = load ptr, ptr %5, align 8, !tbaa !13
  %28 = getelementptr inbounds nuw %struct.fstWriterContext, ptr %27, i32 0, i32 0
  %29 = load ptr, ptr %28, align 8, !tbaa !15
  %30 = call i32 @fflush(ptr noundef %29)
  %31 = load ptr, ptr %5, align 8, !tbaa !13
  %32 = load ptr, ptr %5, align 8, !tbaa !13
  %33 = getelementptr inbounds nuw %struct.fstWriterContext, ptr %32, i32 0, i32 0
  %34 = load ptr, ptr %33, align 8, !tbaa !15
  %35 = load i64, ptr %6, align 8, !tbaa !35
  %36 = call noundef i32 @_ZL15fstWriterFseekoP16fstWriterContextP8_IO_FILEli(ptr noundef %31, ptr noundef %34, i64 noundef %35, i32 noundef 0)
  call void @llvm.lifetime.end.p0(i64 8, ptr %6) #15
  br label %37

37:                                               ; preds = %10, %2
  call void @llvm.lifetime.end.p0(i64 8, ptr %5) #15
  ret void
}