; Function Attrs: mustprogress nofree nounwind uwtable
define void @fstWriterSetTimezero(ptr noundef captures(address_is_null) %0, i64 noundef %1) local_unnamed_addr #14 {
  %3 = alloca [8 x i8], align 1
  %.not = icmp eq ptr %0, null
  br i1 %.not, label %_ZL15fstWriterFseekoP16fstWriterContextP8_IO_FILEli.exit11, label %4

4:                                                ; preds = %2
  %5 = load ptr, ptr %0, align 8, !tbaa !26
  %6 = tail call i64 @ftello(ptr noundef %5)
  %7 = load ptr, ptr %0, align 8, !tbaa !26
  %8 = tail call i32 @fseeko(ptr noundef %7, i64 noundef 322, i32 noundef 0)
  %9 = icmp slt i32 %8, 0
  br i1 %9, label %10, label %_ZL15fstWriterFseekoP16fstWriterContextP8_IO_FILEli.exit

10:                                               ; preds = %4
  %11 = getelementptr inbounds nuw i8, ptr %0, i64 300
  %12 = load i8, ptr %11, align 4
  %13 = or i8 %12, 1
  store i8 %13, ptr %11, align 4
  br label %_ZL15fstWriterFseekoP16fstWriterContextP8_IO_FILEli.exit

_ZL15fstWriterFseekoP16fstWriterContextP8_IO_FILEli.exit: ; preds = %4, %10
  %14 = load ptr, ptr %0, align 8, !tbaa !26
  %15 = getelementptr inbounds nuw i8, ptr %0, i64 120
  store i64 %1, ptr %15, align 8, !tbaa !39
  call void @llvm.lifetime.start.p0(i64 8, ptr nonnull %3) #39
  br label %16

16:                                               ; preds = %16, %_ZL15fstWriterFseekoP16fstWriterContextP8_IO_FILEli.exit
  %indvars.iv.i = phi i64 [ 7, %_ZL15fstWriterFseekoP16fstWriterContextP8_IO_FILEli.exit ], [ %indvars.iv.next.i, %16 ]
  %.056.i = phi i64 [ %1, %_ZL15fstWriterFseekoP16fstWriterContextP8_IO_FILEli.exit ], [ %19, %16 ]
  %17 = trunc i64 %.056.i to i8
  %18 = getelementptr inbounds nuw [8 x i8], ptr %3, i64 0, i64 %indvars.iv.i
  store i8 %17, ptr %18, align 1, !tbaa !6
  %19 = lshr i64 %.056.i, 8
  %indvars.iv.next.i = add nsw i64 %indvars.iv.i, -1
  %.not.i = icmp eq i64 %indvars.iv.i, 0
  br i1 %.not.i, label %_ZL15fstWriterUint64P8_IO_FILEm.exit, label %16, !llvm.loop !37

_ZL15fstWriterUint64P8_IO_FILEm.exit:             ; preds = %16
  %20 = call noundef i64 @fwrite(ptr noundef nonnull %3, i64 noundef 8, i64 noundef 1, ptr noundef %14)
  call void @llvm.lifetime.end.p0(i64 8, ptr nonnull %3) #39
  %21 = load ptr, ptr %0, align 8, !tbaa !26
  %22 = tail call i32 @fflush(ptr noundef %21)
  %23 = load ptr, ptr %0, align 8, !tbaa !26
  %24 = tail call i32 @fseeko(ptr noundef %23, i64 noundef %6, i32 noundef 0)
  %25 = icmp slt i32 %24, 0
  br i1 %25, label %26, label %_ZL15fstWriterFseekoP16fstWriterContextP8_IO_FILEli.exit11

26:                                               ; preds = %_ZL15fstWriterUint64P8_IO_FILEm.exit
  %27 = getelementptr inbounds nuw i8, ptr %0, i64 300
  %28 = load i8, ptr %27, align 4
  %29 = or i8 %28, 1
  store i8 %29, ptr %27, align 4
  br label %_ZL15fstWriterFseekoP16fstWriterContextP8_IO_FILEli.exit11

_ZL15fstWriterFseekoP16fstWriterContextP8_IO_FILEli.exit11: ; preds = %26, %_ZL15fstWriterUint64P8_IO_FILEm.exit, %2
  ret void
}